target datalayout = "e-m:e-p270:32:32-p271:32:32-p272:64:64-i64:64-i128:128-f80:128-n8:16:32:64-S128"
target triple = "x86_64-pc-linux-gnu"

%struct.ident_t = type { i32, i32, i32, i32, ptr }

@1 = private unnamed_addr constant %struct.ident_t { i32 0, i32 514, i32 0, i32 22, ptr @0 }, align 8

; Function Attrs: alwaysinline norecurse nounwind uwtable
define internal void @_ZNK4ncnn3GLU7forwardERKNS_3MatERS1_RKNS_6OptionE.omp_outlined.1(ptr noalias noundef %0, ptr noalias noundef %1, ptr noundef nonnull align 4 dereferenceable(4) %2, ptr noundef nonnull align 8 dereferenceable(8) %3, ptr noundef nonnull align 4 dereferenceable(4) %4, ptr noundef nonnull align 8 dereferenceable(8) %5) #6 {
  %7 = alloca ptr, align 8
  %8 = alloca ptr, align 8
  %9 = alloca ptr, align 8
  %10 = alloca ptr, align 8
  %11 = alloca ptr, align 8
  %12 = alloca ptr, align 8
  %13 = alloca i32, align 4
  %14 = alloca i32, align 4
  %15 = alloca i32, align 4
  %16 = alloca i32, align 4
  %17 = alloca i32, align 4
  %18 = alloca i32, align 4
  %19 = alloca i32, align 4
  %20 = alloca i32, align 4
  %21 = alloca i32, align 4
  %22 = alloca float, align 4
  store ptr %0, ptr %7, align 8, !tbaa !51
  store ptr %1, ptr %8, align 8, !tbaa !51
  store ptr %2, ptr %9, align 8, !tbaa !51
  store ptr %3, ptr %10, align 8, !tbaa !52
  store ptr %4, ptr %11, align 8, !tbaa !51
  store ptr %5, ptr %12, align 8, !tbaa !52
  %23 = load ptr, ptr %9, align 8, !tbaa !51
  %24 = load ptr, ptr %10, align 8, !tbaa !52
  %25 = load ptr, ptr %11, align 8, !tbaa !51
  %26 = load ptr, ptr %12, align 8, !tbaa !52
  call void @llvm.lifetime.start.p0(i64 4, ptr %13) #7
  call void @llvm.lifetime.start.p0(i64 4, ptr %14) #7
  %27 = load i32, ptr %23, align 4, !tbaa !36
  store i32 %27, ptr %14, align 4, !tbaa !36
  call void @llvm.lifetime.start.p0(i64 4, ptr %15) #7
  %28 = load i32, ptr %14, align 4, !tbaa !36
  %29 = sub nsw i32 %28, 0
  %30 = sdiv i32 %29, 1
  %31 = sub nsw i32 %30, 1
  store i32 %31, ptr %15, align 4, !tbaa !36
  call void @llvm.lifetime.start.p0(i64 4, ptr %16) #7
  store i32 0, ptr %16, align 4, !tbaa !36
  call void @llvm.lifetime.end.p0(i64 4, ptr %16) #7
  %32 = load i32, ptr %14, align 4, !tbaa !36
  %33 = icmp slt i32 0, %32
  br i1 %33, label %34, label %87

34:                                               ; preds = %6
  call void @llvm.lifetime.start.p0(i64 4, ptr %17) #7
  store i32 0, ptr %17, align 4, !tbaa !36
  call void @llvm.lifetime.start.p0(i64 4, ptr %18) #7
  %35 = load i32, ptr %15, align 4, !tbaa !36
  store i32 %35, ptr %18, align 4, !tbaa !36
  call void @llvm.lifetime.start.p0(i64 4, ptr %19) #7
  store i32 1, ptr %19, align 4, !tbaa !36
  call void @llvm.lifetime.start.p0(i64 4, ptr %20) #7
  store i32 0, ptr %20, align 4, !tbaa !36
  call void @llvm.lifetime.start.p0(i64 4, ptr %21) #7
  %36 = load ptr, ptr %7, align 8
  %37 = load i32, ptr %36, align 4, !tbaa !36
  call void @__kmpc_for_static_init_4(ptr @1, i32 %37, i32 34, ptr %20, ptr %17, ptr %18, ptr %19, i32 1, i32 1)
  %38 = load i32, ptr %18, align 4, !tbaa !36
  %39 = load i32, ptr %15, align 4, !tbaa !36
  %40 = icmp sgt i32 %38, %39
  br i1 %40, label %41, label %43

41:                                               ; preds = %34
  %42 = load i32, ptr %15, align 4, !tbaa !36
  br label %45

43:                                               ; preds = %34
  %44 = load i32, ptr %18, align 4, !tbaa !36
  br label %45

45:                                               ; preds = %43, %41
  %46 = phi i32 [ %42, %41 ], [ %44, %43 ]
  store i32 %46, ptr %18, align 4, !tbaa !36
  %47 = load i32, ptr %17, align 4, !tbaa !36
  store i32 %47, ptr %13, align 4, !tbaa !36
  br label %48

48:                                               ; preds = %80, %45
  %49 = load i32, ptr %13, align 4, !tbaa !36
  %50 = load i32, ptr %18, align 4, !tbaa !36
  %51 = icmp sle i32 %49, %50
  br i1 %51, label %53, label %52

52:                                               ; preds = %48
  br label %83

53:                                               ; preds = %48
  %54 = load i32, ptr %13, align 4, !tbaa !36
  %55 = mul nsw i32 %54, 1
  %56 = add nsw i32 0, %55
  store i32 %56, ptr %21, align 4, !tbaa !36
  call void @llvm.lifetime.start.p0(i64 4, ptr %22) #7
  %57 = load ptr, ptr %24, align 8, !tbaa !40
  %58 = load i32, ptr %21, align 4, !tbaa !36
  %59 = load i32, ptr %25, align 4, !tbaa !36
  %60 = add nsw i32 %58, %59
  %61 = sext i32 %60 to i64
  %62 = getelementptr inbounds float, ptr %57, i64 %61
  %63 = load float, ptr %62, align 4, !tbaa !55
  %64 = fneg fast float %63
  %65 = call fast float @llvm.exp.f32(float %64)
  %66 = fadd fast float 1.000000e+00, %65
  %67 = fdiv fast float 1.000000e+00, %66
  store float %67, ptr %22, align 4, !tbaa !55
  %68 = load ptr, ptr %24, align 8, !tbaa !40
  %69 = load i32, ptr %21, align 4, !tbaa !36
  %70 = sext i32 %69 to i64
  %71 = getelementptr inbounds float, ptr %68, i64 %70
  %72 = load float, ptr %71, align 4, !tbaa !55
  %73 = load float, ptr %22, align 4, !tbaa !55
  %74 = fmul fast float %72, %73
  %75 = load ptr, ptr %26, align 8, !tbaa !40
  %76 = load i32, ptr %21, align 4, !tbaa !36
  %77 = sext i32 %76 to i64
  %78 = getelementptr inbounds float, ptr %75, i64 %77
  store float %74, ptr %78, align 4, !tbaa !55
  call void @llvm.lifetime.end.p0(i64 4, ptr %22) #7
  br label %79

79:                                               ; preds = %53
  br label %80

80:                                               ; preds = %79
  %81 = load i32, ptr %13, align 4, !tbaa !36
  %82 = add nsw i32 %81, 1
  store i32 %82, ptr %13, align 4, !tbaa !36
  br label %48

83:                                               ; preds = %52
  br label %84

84:                                               ; preds = %83
  %85 = load ptr, ptr %7, align 8
  %86 = load i32, ptr %85, align 4, !tbaa !36
  call void @__kmpc_for_static_fini(ptr @1, i32 %86)
  call void @llvm.lifetime.end.p0(i64 4, ptr %21) #7
  call void @llvm.lifetime.end.p0(i64 4, ptr %20) #7
  call void @llvm.lifetime.end.p0(i64 4, ptr %19) #7
  call void @llvm.lifetime.end.p0(i64 4, ptr %18) #7
  call void @llvm.lifetime.end.p0(i64 4, ptr %17) #7
  br label %87

87:                                               ; preds = %84, %6
  call void @llvm.lifetime.end.p0(i64 4, ptr %15) #7
  call void @llvm.lifetime.end.p0(i64 4, ptr %14) #7
  call void @llvm.lifetime.end.p0(i64 4, ptr %13) #7
  ret void
}