; Function Attrs: alwaysinline norecurse nounwind uwtable
define internal void @_ZNK4ncnn3GLU7forwardERKNS_3MatERS1_RKNS_6OptionE.omp_outlined.1(ptr noalias noundef readonly captures(none) %0, ptr noalias readnone captures(none) %1, ptr noundef nonnull readonly align 4 captures(none) dereferenceable(4) %2, ptr noundef nonnull readonly align 8 captures(none) dereferenceable(8) %3, ptr noundef nonnull readonly align 4 captures(none) dereferenceable(4) %4, ptr noundef nonnull readonly align 8 captures(none) dereferenceable(8) %5) #5 {
  %7 = alloca i32, align 4
  %8 = alloca i32, align 4
  %9 = alloca i32, align 4
  %10 = alloca i32, align 4
  %11 = load i32, ptr %2, align 4, !tbaa !30
  %12 = icmp sgt i32 %11, 0
  br i1 %12, label %13, label %34

13:                                               ; preds = %6
  %14 = add nsw i32 %11, -1
  call void @llvm.lifetime.start.p0(i64 4, ptr nonnull %7) #6
  store i32 0, ptr %7, align 4, !tbaa !30
  call void @llvm.lifetime.start.p0(i64 4, ptr nonnull %8) #6
  store i32 %14, ptr %8, align 4, !tbaa !30
  call void @llvm.lifetime.start.p0(i64 4, ptr nonnull %9) #6
  store i32 1, ptr %9, align 4, !tbaa !30
  call void @llvm.lifetime.start.p0(i64 4, ptr nonnull %10) #6
  store i32 0, ptr %10, align 4, !tbaa !30
  %15 = load i32, ptr %0, align 4, !tbaa !30
  call void @__kmpc_for_static_init_4(ptr nonnull @1, i32 %15, i32 34, ptr nonnull %10, ptr nonnull %7, ptr nonnull %8, ptr nonnull %9, i32 1, i32 1)
  %16 = load i32, ptr %8, align 4, !tbaa !30
  %17 = call i32 @llvm.smin.i32(i32 %16, i32 %14)
  store i32 %17, ptr %8, align 4, !tbaa !30
  %18 = load i32, ptr %7, align 4, !tbaa !30
  %.not17 = icmp sgt i32 %18, %17
  br i1 %.not17, label %._crit_edge, label %.lr.ph

.lr.ph:                                           ; preds = %13
  %19 = load ptr, ptr %3, align 8, !tbaa !34
  %20 = load i32, ptr %4, align 4, !tbaa !30
  %21 = load ptr, ptr %5, align 8, !tbaa !34
  %22 = sext i32 %18 to i64
  %23 = sext i32 %20 to i64
  %24 = add nsw i32 %17, 1
  %invariant.gep = getelementptr float, ptr %19, i64 %23
  br label %25

25:                                               ; preds = %.lr.ph, %25
  %indvars.iv = phi i64 [ %22, %.lr.ph ], [ %indvars.iv.next, %25 ]
  %gep = getelementptr float, ptr %invariant.gep, i64 %indvars.iv
  %26 = load float, ptr %gep, align 4, !tbaa !44
  %27 = fneg fast float %26
  %28 = call fast float @llvm.exp.f32(float %27)
  %29 = fadd fast float %28, 1.000000e+00
  %30 = getelementptr inbounds float, ptr %19, i64 %indvars.iv
  %31 = load float, ptr %30, align 4, !tbaa !44
  %32 = fdiv fast float %31, %29
  %33 = getelementptr inbounds float, ptr %21, i64 %indvars.iv
  store float %32, ptr %33, align 4, !tbaa !44
  %indvars.iv.next = add nsw i64 %indvars.iv, 1
  %lftr.wideiv = trunc i64 %indvars.iv.next to i32
  %exitcond.not = icmp eq i32 %24, %lftr.wideiv
  br i1 %exitcond.not, label %._crit_edge, label %25

._crit_edge:                                      ; preds = %25, %13
  call void @__kmpc_for_static_fini(ptr nonnull @1, i32 %15)
  call void @llvm.lifetime.end.p0(i64 4, ptr nonnull %10) #6
  call void @llvm.lifetime.end.p0(i64 4, ptr nonnull %9) #6
  call void @llvm.lifetime.end.p0(i64 4, ptr nonnull %8) #6
  call void @llvm.lifetime.end.p0(i64 4, ptr nonnull %7) #6
  br label %34

34:                                               ; preds = %._crit_edge, %6
  ret void
}